
bootrom.rv64.elf:     file format elf64-littleriscv


Disassembly of section .text.start:

0000000000010000 <_start>:
   10000:	020005b7          	lui	a1,0x2000
   10004:	f1402573          	csrr	a0,mhartid
   10008:	00050463          	beqz	a0,10010 <_start+0x10>
   1000c:	0780006f          	j	10084 <boot_core>
   10010:	00458613          	addi	a2,a1,4 # 2000004 <_dtb+0x1feff44>
   10014:	00100693          	li	a3,1

0000000000010018 <interrupt_loop>:
   10018:	00d62023          	sw	a3,0(a2)
   1001c:	00460613          	addi	a2,a2,4
   10020:	ffc62683          	lw	a3,-4(a2)
   10024:	fe069ae3          	bnez	a3,10018 <interrupt_loop>
   10028:	06c0006f          	j	10094 <boot_core_hart0>

Disassembly of section .text.hang:

0000000000010040 <_hang>:
   10040:	00000517          	auipc	a0,0x0
   10044:	fc050513          	addi	a0,a0,-64 # 10000 <ROM_BASE>
   10048:	30551073          	csrw	mtvec,a0
   1004c:	301022f3          	csrr	t0,misa
   10050:	4122d293          	srai	t0,t0,0x12
   10054:	0012f293          	andi	t0,t0,1
   10058:	00028463          	beqz	t0,10060 <_hang+0x20>
   1005c:	30301073          	csrw	mideleg,zero
   10060:	00800513          	li	a0,8
   10064:	30451073          	csrw	mie,a0
   10068:	30052073          	csrs	mstatus,a0

000000000001006c <wfi_loop>:
   1006c:	10500073          	wfi
   10070:	ffdff06f          	j	1006c <wfi_loop>

Disassembly of section .text.hang80:

0000000000010080 <_hang80>:
   10080:	fc1ff06f          	j	10040 <_hang>

0000000000010084 <boot_core>:
   10084:	0005a283          	lw	t0,0(a1)
   10088:	fe029ee3          	bnez	t0,10084 <boot_core>
   1008c:	00251513          	slli	a0,a0,0x2
   10090:	00b505b3          	add	a1,a0,a1

0000000000010094 <boot_core_hart0>:
   10094:	0005a023          	sw	zero,0(a1)
   10098:	00004537          	lui	a0,0x4
   1009c:	00053503          	ld	a0,0(a0) # 4000 <ROM_BASE-0xc000>
   100a0:	34151073          	csrw	mepc,a0
   100a4:	f1402573          	csrr	a0,mhartid
   100a8:	00000597          	auipc	a1,0x0
   100ac:	01858593          	addi	a1,a1,24 # 100c0 <_dtb>
   100b0:	08000613          	li	a2,128
   100b4:	30063073          	csrc	mstatus,a2
   100b8:	30200073          	mret
   100bc:	00000013          	nop
