
bootrom.radiance.rv32.elf:     file format elf32-littleriscv


Disassembly of section .text.start:

00010000 <_start>:
   10000:	00000013          	nop
   10004:	00000013          	nop
   10008:	00000013          	nop
   1000c:	00000013          	nop
   10010:	00000263          	beqz	zero,10014 <b_target_0>

00010014 <b_target_0>:
   10014:	00001263          	bnez	zero,10018 <b_target_1>

00010018 <b_target_1>:
   10018:	00000263          	beqz	zero,1001c <b_target_2>

0001001c <b_target_2>:
   1001c:	00001263          	bnez	zero,10020 <b_target_3>

00010020 <b_target_3>:
   10020:	00000263          	beqz	zero,10024 <b_target_4>

00010024 <b_target_4>:
   10024:	00001263          	bnez	zero,10028 <b_target_5>

00010028 <b_target_5>:
   10028:	00000263          	beqz	zero,1002c <b_target_6>

0001002c <b_target_6>:
   1002c:	00001263          	bnez	zero,10030 <b_target_7>

00010030 <b_target_7>:
   10030:	00000013          	nop
   10034:	0040006f          	j	10038 <j_target>

00010038 <j_target>:
   10038:	020005b7          	lui	a1,0x2000
   1003c:	f1402573          	csrr	a0,mhartid
   10040:	00050463          	beqz	a0,10048 <set_irq>
   10044:	0d00006f          	j	10114 <boot_core>

00010048 <set_irq>:
   10048:	00458613          	addi	a2,a1,4 # 2000004 <_dtb+0x1fefebc>
   1004c:	00100693          	li	a3,1

00010050 <interrupt_loop>:
   10050:	00d62023          	sw	a3,0(a2)
   10054:	00460613          	addi	a2,a2,4
   10058:	ffc62683          	lw	a3,-4(a2)
   1005c:	fe069ae3          	bnez	a3,10050 <interrupt_loop>
   10060:	0c40006f          	j	10124 <boot_core_hart0>

Disassembly of section .text.hang100:

00010100 <_hang100>:
   10100:	00000517          	auipc	a0,0x0
   10104:	f0050513          	addi	a0,a0,-256 # 10000 <ROM_BASE>
   10108:	30551073          	csrw	mtvec,a0

0001010c <wfi_loop>:
   1010c:	00000013          	nop
   10110:	ffdff06f          	j	1010c <wfi_loop>

00010114 <boot_core>:
   10114:	0005a283          	lw	t0,0(a1)
   10118:	fe029ee3          	bnez	t0,10114 <boot_core>
   1011c:	00251513          	slli	a0,a0,0x2
   10120:	00b505b3          	add	a1,a0,a1

00010124 <boot_core_hart0>:
   10124:	0005a023          	sw	zero,0(a1)
   10128:	00000513          	li	a0,0
   1012c:	00000593          	li	a1,0
   10130:	00000613          	li	a2,0
   10134:	00000693          	li	a3,0
   10138:	00000313          	li	t1,0
   1013c:	00000413          	li	s0,0
   10140:	800002b7          	lui	t0,0x80000
   10144:	00028067          	jr	t0 # 80000000 <_dtb+0x7ffefeb8>

00010148 <_dtb>:
   10148:	0000                	.2byte	0x0
	...
