
bootrom.radiance.rv32.elf:     file format elf32-littleriscv


Disassembly of section .text.start:

00010000 <_start>:
   10000:	00000013          	nop
   10004:	00000013          	nop
   10008:	00000013          	nop
   1000c:	00000013          	nop
   10010:	00000263          	beqz	zero,10014 <b_target_0>

00010014 <b_target_0>:
   10014:	00001263          	bnez	zero,10018 <b_target_1>

00010018 <b_target_1>:
   10018:	00000263          	beqz	zero,1001c <b_target_2>

0001001c <b_target_2>:
   1001c:	00001263          	bnez	zero,10020 <b_target_3>

00010020 <b_target_3>:
   10020:	00000013          	nop
   10024:	0040006f          	j	10028 <j_target>

00010028 <j_target>:
   10028:	020005b7          	lui	a1,0x2000
   1002c:	f1402573          	csrr	a0,mhartid
   10030:	00050463          	beqz	a0,10038 <j_target+0x10>
   10034:	0e00006f          	j	10114 <boot_core>
   10038:	7fff0637          	lui	a2,0x7fff0
   1003c:	03462683          	lw	a3,52(a2) # 7fff0034 <_dtb+0x7ffdfeec>
   10040:	0006a683          	lw	a3,0(a3)
   10044:	40000413          	li	s0,1024
   10048:	00020637          	lui	a2,0x20
   1004c:	00000293          	li	t0,0

00010050 <copy_op_a>:
   10050:	0082de63          	bge	t0,s0,1006c <end_op_a>
   10054:	00062303          	lw	t1,0(a2) # 20000 <_dtb+0xfeb8>
   10058:	0066a023          	sw	t1,0(a3)
   1005c:	00128293          	addi	t0,t0,1
   10060:	00460613          	addi	a2,a2,4
   10064:	00468693          	addi	a3,a3,4
   10068:	fe9ff06f          	j	10050 <copy_op_a>

0001006c <end_op_a>:
   1006c:	7fff0637          	lui	a2,0x7fff0
   10070:	03862683          	lw	a3,56(a2) # 7fff0038 <_dtb+0x7ffdfef0>
   10074:	0006a683          	lw	a3,0(a3)
   10078:	40000413          	li	s0,1024
   1007c:	00028637          	lui	a2,0x28
   10080:	00000293          	li	t0,0

00010084 <copy_op_b>:
   10084:	0082de63          	bge	t0,s0,100a0 <end_op_b>
   10088:	00062303          	lw	t1,0(a2) # 28000 <_dtb+0x17eb8>
   1008c:	0066a023          	sw	t1,0(a3)
   10090:	00128293          	addi	t0,t0,1
   10094:	00460613          	addi	a2,a2,4
   10098:	00468693          	addi	a3,a3,4
   1009c:	fe9ff06f          	j	10084 <copy_op_b>

000100a0 <end_op_b>:
   100a0:	00458613          	addi	a2,a1,4 # 2000004 <_dtb+0x1fefebc>
   100a4:	00100693          	li	a3,1

000100a8 <interrupt_loop>:
   100a8:	00d62023          	sw	a3,0(a2)
   100ac:	00460613          	addi	a2,a2,4
   100b0:	ffc62683          	lw	a3,-4(a2)
   100b4:	fe069ae3          	bnez	a3,100a8 <interrupt_loop>
   100b8:	06c0006f          	j	10124 <boot_core_hart0>

Disassembly of section .text.hang100:

00010100 <_hang100>:
   10100:	00000517          	auipc	a0,0x0
   10104:	f0050513          	addi	a0,a0,-256 # 10000 <ROM_BASE>
   10108:	30551073          	csrw	mtvec,a0

0001010c <wfi_loop>:
   1010c:	00000013          	nop
   10110:	ffdff06f          	j	1010c <wfi_loop>

00010114 <boot_core>:
   10114:	0005a283          	lw	t0,0(a1)
   10118:	fe029ee3          	bnez	t0,10114 <boot_core>
   1011c:	00251513          	slli	a0,a0,0x2
   10120:	00b505b3          	add	a1,a0,a1

00010124 <boot_core_hart0>:
   10124:	0005a023          	sw	zero,0(a1)
   10128:	00000513          	li	a0,0
   1012c:	00000593          	li	a1,0
   10130:	00000613          	li	a2,0
   10134:	00000693          	li	a3,0
   10138:	00000313          	li	t1,0
   1013c:	00000413          	li	s0,0
   10140:	800002b7          	lui	t0,0x80000
   10144:	00028067          	jr	t0 # 80000000 <_dtb+0x7ffefeb8>

00010148 <_dtb>:
   10148:	0000                	.2byte	0x0
	...
